; Function Attrs: mustprogress uwtable
define hidden void @_ZN6Assimp13glTF2Exporter13GetMatTexPropERK10aiMaterialRjPKc13aiTextureTypej(ptr nocapture noundef nonnull readnone align 8 dereferenceable(120) %this, ptr noundef nonnull align 8 dereferenceable(16) %mat, ptr nocapture noundef nonnull writeonly align 4 dereferenceable(4) %prop, ptr noundef %propName, i32 noundef %tt, i32 noundef %slot) local_unnamed_addr #2 align 2 personality ptr @__gxx_personality_v0 {
entry:
  %prop.i = alloca ptr, align 8
  %textureKey = alloca %"class.std::__cxx11::basic_string", align 8
  %ref.tmp = alloca %"class.std::__cxx11::basic_string", align 8
  %ref.tmp2 = alloca %"class.std::__cxx11::basic_string", align 8
  %ref.tmp3 = alloca %"class.std::allocator.0", align 1
  call void @_ZNSaIcEC1Ev(ptr noundef nonnull align 1 dereferenceable(1) %ref.tmp3) #24
  %call.i5 = invoke noundef ptr @_ZNSt7__cxx1112basic_stringIcSt11char_traitsIcESaIcEE13_M_local_dataEv(ptr noundef nonnull align 8 dereferenceable(32) %ref.tmp2)
          to label %call.i.noexc unwind label %lpad

call.i.noexc:                                     ; preds = %entry
  invoke void @_ZNSt7__cxx1112basic_stringIcSt11char_traitsIcESaIcEE12_Alloc_hiderC1EPcRKS3_(ptr noundef nonnull align 8 dereferenceable(8) %ref.tmp2, ptr noundef %call.i5, ptr noundef nonnull align 1 dereferenceable(1) %ref.tmp3)
          to label %.noexc unwind label %lpad

.noexc:                                           ; preds = %call.i.noexc
  invoke void @_ZNSt7__cxx1112basic_stringIcSt11char_traitsIcESaIcEE12_M_constructIPKcEEvT_S8_St20forward_iterator_tag(ptr noundef nonnull align 8 dereferenceable(32) %ref.tmp2, ptr noundef nonnull @.str.8, ptr noundef nonnull getelementptr inbounds ([10 x i8], ptr @.str.8, i64 0, i64 9))
          to label %invoke.cont unwind label %lpad.i

lpad.i:                                           ; preds = %.noexc
  %0 = landingpad { ptr, i32 }
          cleanup
  call void @_ZNSaIcED2Ev(ptr noundef nonnull align 1 dereferenceable(1) %ref.tmp2) #24
  br label %ehcleanup8

invoke.cont:                                      ; preds = %.noexc
  %call.i7 = invoke noundef nonnull align 8 dereferenceable(32) ptr @_ZNSt7__cxx1112basic_stringIcSt11char_traitsIcESaIcEE6appendEPKc(ptr noundef nonnull align 8 dereferenceable(32) %ref.tmp2, ptr noundef nonnull @.str.9)
          to label %invoke.cont5 unwind label %lpad4

invoke.cont5:                                     ; preds = %invoke.cont
  call void @_ZNSt7__cxx1112basic_stringIcSt11char_traitsIcESaIcEEC1EOS4_(ptr noundef nonnull align 8 dereferenceable(32) %ref.tmp, ptr noundef nonnull align 8 dereferenceable(32) %call.i7) #24
  %call.i9 = invoke noundef nonnull align 8 dereferenceable(32) ptr @_ZNSt7__cxx1112basic_stringIcSt11char_traitsIcESaIcEE6appendEPKc(ptr noundef nonnull align 8 dereferenceable(32) %ref.tmp, ptr noundef %propName)
          to label %invoke.cont7 unwind label %lpad6

invoke.cont7:                                     ; preds = %invoke.cont5
  call void @_ZNSt7__cxx1112basic_stringIcSt11char_traitsIcESaIcEEC1EOS4_(ptr noundef nonnull align 8 dereferenceable(32) %textureKey, ptr noundef nonnull align 8 dereferenceable(32) %call.i9) #24
  call void @_ZNSt7__cxx1112basic_stringIcSt11char_traitsIcESaIcEED1Ev(ptr noundef nonnull align 8 dereferenceable(32) %ref.tmp) #24
  call void @_ZNSt7__cxx1112basic_stringIcSt11char_traitsIcESaIcEED1Ev(ptr noundef nonnull align 8 dereferenceable(32) %ref.tmp2) #24
  call void @_ZNSaIcED1Ev(ptr noundef nonnull align 1 dereferenceable(1) %ref.tmp3) #24
  %call = call noundef ptr @_ZNKSt7__cxx1112basic_stringIcSt11char_traitsIcESaIcEE5c_strEv(ptr noundef nonnull align 8 dereferenceable(32) %textureKey) #24
  call void @llvm.lifetime.start.p0(i64 8, ptr nonnull %prop.i)
  %call.i12 = invoke i32 @aiGetMaterialProperty(ptr noundef nonnull %mat, ptr noundef %call, i32 noundef %tt, i32 noundef %slot, ptr noundef nonnull %prop.i)
          to label %call.i.noexc11 unwind label %lpad9

call.i.noexc11:                                   ; preds = %invoke.cont7
  %cmp.i = icmp eq i32 %call.i12, 0
  br i1 %cmp.i, label %if.then.i, label %invoke.cont10

if.then.i:                                        ; preds = %call.i.noexc11
  %1 = load ptr, ptr %prop.i, align 8
  %mDataLength.i = getelementptr inbounds i8, ptr %1, i64 1036
  %2 = load i32, ptr %mDataLength.i, align 4
  %cmp2.i = icmp ult i32 %2, 4
  br i1 %cmp2.i, label %invoke.cont10, label %if.end.i

if.end.i:                                         ; preds = %if.then.i
  %mType.i = getelementptr inbounds i8, ptr %1, i64 1040
  %3 = load i32, ptr %mType.i, align 8
  %cmp4.not.i = icmp eq i32 %3, 5
  br i1 %cmp4.not.i, label %if.end6.i, label %invoke.cont10

if.end6.i:                                        ; preds = %if.end.i
  %mData.i = getelementptr inbounds i8, ptr %1, i64 1048
  %4 = load ptr, ptr %mData.i, align 8
  %5 = load i32, ptr %4, align 1
  store i32 %5, ptr %prop, align 4
  br label %invoke.cont10

invoke.cont10:                                    ; preds = %if.end6.i, %if.end.i, %if.then.i, %call.i.noexc11
  call void @llvm.lifetime.end.p0(i64 8, ptr nonnull %prop.i)
  call void @_ZNSt7__cxx1112basic_stringIcSt11char_traitsIcESaIcEED1Ev(ptr noundef nonnull align 8 dereferenceable(32) %textureKey) #24
  ret void

lpad:                                             ; preds = %call.i.noexc, %entry
  %6 = landingpad { ptr, i32 }
          cleanup
  br label %ehcleanup8

lpad4:                                            ; preds = %invoke.cont
  %7 = landingpad { ptr, i32 }
          cleanup
  br label %ehcleanup

lpad6:                                            ; preds = %invoke.cont5
  %8 = landingpad { ptr, i32 }
          cleanup
  call void @_ZNSt7__cxx1112basic_stringIcSt11char_traitsIcESaIcEED1Ev(ptr noundef nonnull align 8 dereferenceable(32) %ref.tmp) #24
  br label %ehcleanup

ehcleanup:                                        ; preds = %lpad6, %lpad4
  %.pn = phi { ptr, i32 } [ %8, %lpad6 ], [ %7, %lpad4 ]
  call void @_ZNSt7__cxx1112basic_stringIcSt11char_traitsIcESaIcEED1Ev(ptr noundef nonnull align 8 dereferenceable(32) %ref.tmp2) #24
  br label %ehcleanup8

ehcleanup8:                                       ; preds = %lpad, %lpad.i, %ehcleanup
  %.pn.pn = phi { ptr, i32 } [ %.pn, %ehcleanup ], [ %6, %lpad ], [ %0, %lpad.i ]
  call void @_ZNSaIcED1Ev(ptr noundef nonnull align 1 dereferenceable(1) %ref.tmp3) #24
  br label %eh.resume

lpad9:                                            ; preds = %invoke.cont7
  %9 = landingpad { ptr, i32 }
          cleanup
  call void @_ZNSt7__cxx1112basic_stringIcSt11char_traitsIcESaIcEED1Ev(ptr noundef nonnull align 8 dereferenceable(32) %textureKey) #24
  br label %eh.resume

eh.resume:                                        ; preds = %lpad9, %ehcleanup8
  %.pn3 = phi { ptr, i32 } [ %9, %lpad9 ], [ %.pn.pn, %ehcleanup8 ]
  resume { ptr, i32 } %.pn3
}